target datalayout = "e-m:e-p270:32:32-p271:32:32-p272:64:64-i64:64-i128:128-f80:128-n8:16:32:64-S128"
target triple = "x86_64-pc-linux-gnu"

; Function Attrs: nounwind uwtable
define internal float @compute_dev_flt(ptr noundef %0, float noundef %1, float noundef %2, i32 noundef %3, ptr noundef %4, ptr noundef %5) #2 {
  %7 = alloca ptr, align 8
  %8 = alloca float, align 4
  %9 = alloca float, align 4
  %10 = alloca i32, align 4
  %11 = alloca ptr, align 8
  %12 = alloca ptr, align 8
  %13 = alloca float, align 4
  store ptr %0, ptr %7, align 8, !tbaa !95
  store float %1, ptr %8, align 4, !tbaa !97
  store float %2, ptr %9, align 4, !tbaa !97
  store i32 %3, ptr %10, align 4, !tbaa !35
  store ptr %4, ptr %11, align 8, !tbaa !99
  store ptr %5, ptr %12, align 8, !tbaa !99
  call void @llvm.lifetime.start.p0(i64 4, ptr %13) #7
  %14 = load float, ptr %8, align 4, !tbaa !97
  %15 = load ptr, ptr %7, align 8, !tbaa !95
  %16 = getelementptr inbounds float, ptr %15, i64 0
  %17 = load float, ptr %16, align 4, !tbaa !97
  %18 = fadd nsz float %17, %14
  store float %18, ptr %16, align 4, !tbaa !97
  %19 = load float, ptr %9, align 4, !tbaa !97
  %20 = load ptr, ptr %7, align 8, !tbaa !95
  %21 = getelementptr inbounds float, ptr %20, i64 0
  %22 = load float, ptr %21, align 4, !tbaa !97
  %23 = fsub nsz float %22, %19
  store float %23, ptr %21, align 4, !tbaa !97
  %24 = load float, ptr %8, align 4, !tbaa !97
  %25 = load float, ptr %8, align 4, !tbaa !97
  %26 = load ptr, ptr %7, align 8, !tbaa !95
  %27 = getelementptr inbounds float, ptr %26, i64 1
  %28 = load float, ptr %27, align 4, !tbaa !97
  %29 = call nsz float @llvm.fmuladd.f32(float %24, float %25, float %28)
  store float %29, ptr %27, align 4, !tbaa !97
  %30 = load float, ptr %9, align 4, !tbaa !97
  %31 = load float, ptr %9, align 4, !tbaa !97
  %32 = load ptr, ptr %7, align 8, !tbaa !95
  %33 = getelementptr inbounds float, ptr %32, i64 1
  %34 = load float, ptr %33, align 4, !tbaa !97
  %35 = fneg nsz float %30
  %36 = call nsz float @llvm.fmuladd.f32(float %35, float %31, float %34)
  store float %36, ptr %33, align 4, !tbaa !97
  %37 = load ptr, ptr %7, align 8, !tbaa !95
  %38 = getelementptr inbounds float, ptr %37, i64 1
  %39 = load float, ptr %38, align 4, !tbaa !97
  %40 = call nsz float @llvm.maxnum.f32(float %39, float 0.000000e+00)
  %41 = load ptr, ptr %7, align 8, !tbaa !95
  %42 = getelementptr inbounds float, ptr %41, i64 1
  store float %40, ptr %42, align 4, !tbaa !97
  %43 = load ptr, ptr %7, align 8, !tbaa !95
  %44 = getelementptr inbounds float, ptr %43, i64 1
  %45 = load float, ptr %44, align 4, !tbaa !97
  %46 = load ptr, ptr %7, align 8, !tbaa !95
  %47 = getelementptr inbounds float, ptr %46, i64 0
  %48 = load float, ptr %47, align 4, !tbaa !97
  %49 = load ptr, ptr %7, align 8, !tbaa !95
  %50 = getelementptr inbounds float, ptr %49, i64 0
  %51 = load float, ptr %50, align 4, !tbaa !97
  %52 = fmul nsz float %48, %51
  %53 = load i32, ptr %10, align 4, !tbaa !35
  %54 = sitofp i32 %53 to float
  %55 = fdiv nsz float %52, %54
  %56 = fsub nsz float %45, %55
  %57 = call nsz float @llvm.maxnum.f32(float %56, float 0.000000e+00)
  %58 = load i32, ptr %10, align 4, !tbaa !35
  %59 = sitofp i32 %58 to float
  %60 = fdiv nsz float %57, %59
  store float %60, ptr %13, align 4, !tbaa !97
  %61 = load float, ptr %13, align 4, !tbaa !97
  %62 = call nsz float @llvm.sqrt.f32(float %61)
  call void @llvm.lifetime.end.p0(i64 4, ptr %13) #7
  ret float %62
}