; Function Attrs: mustprogress nofree norecurse nosync nounwind willreturn memory(argmem: readwrite) uwtable
define internal float @compute_dev_flt(ptr noundef captures(none) %0, float noundef %1, float noundef %2, i32 noundef %3, ptr readnone captures(none) %4, ptr readnone captures(none) %5) #7 {
  %7 = load float, ptr %0, align 4, !tbaa !99
  %8 = fadd nsz float %1, %7
  %9 = fsub nsz float %8, %2
  store float %9, ptr %0, align 4, !tbaa !99
  %10 = getelementptr inbounds nuw i8, ptr %0, i64 4
  %11 = load float, ptr %10, align 4, !tbaa !99
  %12 = tail call nsz float @llvm.fmuladd.f32(float %1, float %1, float %11)
  %13 = fneg nsz float %2
  %14 = tail call nsz float @llvm.fmuladd.f32(float %13, float %2, float %12)
  %15 = tail call nsz float @llvm.maxnum.f32(float %14, float 0.000000e+00)
  store float %15, ptr %10, align 4, !tbaa !99
  %16 = fmul nsz float %9, %9
  %17 = sitofp i32 %3 to float
  %18 = fdiv nsz float %16, %17
  %19 = fsub nsz float %15, %18
  %20 = tail call nsz float @llvm.maxnum.f32(float %19, float 0.000000e+00)
  %21 = fdiv nsz float %20, %17
  %22 = tail call nsz float @llvm.sqrt.f32(float %21)
  ret float %22
}